; Function Attrs: nounwind uwtable
define internal ptr @spl_filesystem_object_get_method_check(ptr noundef %0, ptr noundef %1, ptr noundef %2) #0 {
  %4 = load ptr, ptr %0, align 8
  %5 = getelementptr inbounds i8, ptr %4, i64 -312
  %6 = load ptr, ptr %5, align 8
  %7 = icmp eq ptr %6, null
  br i1 %7, label %8, label %13

8:                                                ; preds = %3
  %9 = getelementptr inbounds i8, ptr %4, i64 -360
  %10 = load ptr, ptr %9, align 8
  %11 = icmp eq ptr %10, null
  br i1 %11, label %12, label %13

12:                                               ; preds = %8
  tail call void (ptr, ptr, ...) @zend_throw_error(ptr noundef null, ptr noundef nonnull @.str.13) #18
  br label %15

13:                                               ; preds = %8, %3
  %14 = tail call ptr @zend_std_get_method(ptr noundef nonnull %0, ptr noundef %1, ptr noundef %2) #18
  br label %15

15:                                               ; preds = %13, %12
  %.0 = phi ptr [ null, %12 ], [ %14, %13 ]
  ret ptr %.0
}